target datalayout = "e-m:e-p270:32:32-p271:32:32-p272:64:64-i64:64-i128:128-f80:128-n8:16:32:64-S128"
target triple = "x86_64-pc-linux-gnu"

%struct._object = type { %union.anon, ptr }
%union.anon = type { i64 }
%struct.PyVarObject = type { %struct._object, i64 }
%struct.anon = type { i32, i32 }
%struct._typeobject = type { %struct.PyVarObject, ptr, i64, i64, ptr, i64, ptr, ptr, ptr, ptr, ptr, ptr, ptr, ptr, ptr, ptr, ptr, ptr, ptr, i64, ptr, ptr, ptr, ptr, i64, ptr, ptr, ptr, ptr, ptr, ptr, ptr, ptr, ptr, i64, ptr, ptr, ptr, ptr, ptr, ptr, ptr, ptr, ptr, ptr, ptr, i32, ptr, ptr, i8, i16 }

@MyObject_dealloc_called = internal global i32 0, align 4
@.str.28 = private unnamed_addr constant [38 x i8] c"../cpython/Modules/_testcapi/object.c\00", align 1
@.str.31 = private unnamed_addr constant [19 x i8] c"Py_REFCNT(op) == 0\00", align 1
@__PRETTY_FUNCTION__.MyObject_dealloc = private unnamed_addr constant [34 x i8] c"void MyObject_dealloc(PyObject *)\00", align 1
@.str.32 = private unnamed_addr constant [26 x i8] c"!PyUnstable_TryIncRef(op)\00", align 1

; Function Attrs: inlinehint nounwind uwtable
define internal ptr @_Py_TYPE(ptr noundef %0) #3 {
  %2 = alloca ptr, align 8
  store ptr %0, ptr %2, align 8, !tbaa !3
  %3 = load ptr, ptr %2, align 8, !tbaa !3
  %4 = getelementptr inbounds nuw %struct._object, ptr %3, i32 0, i32 1
  %5 = load ptr, ptr %4, align 8, !tbaa !27
  ret ptr %5
}

; Function Attrs: inlinehint nounwind uwtable
define internal i64 @_Py_REFCNT(ptr noundef %0) #3 {
  %2 = alloca ptr, align 8
  store ptr %0, ptr %2, align 8, !tbaa !3
  %3 = load ptr, ptr %2, align 8, !tbaa !3
  %4 = getelementptr inbounds nuw %struct._object, ptr %3, i32 0, i32 0
  %5 = getelementptr inbounds nuw %struct.anon, ptr %4, i32 0, i32 0
  %6 = load i32, ptr %5, align 8, !tbaa !16
  %7 = zext i32 %6 to i64
  ret i64 %7
}

; Function Attrs: nounwind uwtable
define internal void @MyObject_dealloc(ptr noundef %0) #0 {
  %2 = alloca ptr, align 8
  store ptr %0, ptr %2, align 8, !tbaa !3
  %3 = load ptr, ptr %2, align 8, !tbaa !3
  %4 = call i64 @_Py_REFCNT(ptr noundef %3)
  %5 = icmp eq i64 %4, 0
  br i1 %5, label %6, label %7

6:                                                ; preds = %1
  br label %9

7:                                                ; preds = %1
  call void @__assert_fail(ptr noundef @.str.31, ptr noundef @.str.28, i32 noundef 140, ptr noundef @__PRETTY_FUNCTION__.MyObject_dealloc) #7
  unreachable

8:                                                ; No predecessors!
  br label %9

9:                                                ; preds = %8, %6
  %10 = load ptr, ptr %2, align 8, !tbaa !3
  %11 = call i32 @PyUnstable_TryIncRef(ptr noundef %10)
  %12 = icmp ne i32 %11, 0
  br i1 %12, label %14, label %13

13:                                               ; preds = %9
  br label %16

14:                                               ; preds = %9
  call void @__assert_fail(ptr noundef @.str.32, ptr noundef @.str.28, i32 noundef 141, ptr noundef @__PRETTY_FUNCTION__.MyObject_dealloc) #7
  unreachable

15:                                               ; No predecessors!
  br label %16

16:                                               ; preds = %15, %13
  %17 = load ptr, ptr %2, align 8, !tbaa !3
  %18 = call i64 @_Py_REFCNT(ptr noundef %17)
  %19 = icmp eq i64 %18, 0
  br i1 %19, label %20, label %21

20:                                               ; preds = %16
  br label %23

21:                                               ; preds = %16
  call void @__assert_fail(ptr noundef @.str.31, ptr noundef @.str.28, i32 noundef 142, ptr noundef @__PRETTY_FUNCTION__.MyObject_dealloc) #7
  unreachable

22:                                               ; No predecessors!
  br label %23

23:                                               ; preds = %22, %20
  %24 = load i32, ptr @MyObject_dealloc_called, align 4, !tbaa !8
  %25 = add i32 %24, 1
  store i32 %25, ptr @MyObject_dealloc_called, align 4, !tbaa !8
  %26 = load ptr, ptr %2, align 8, !tbaa !3
  %27 = call ptr @_Py_TYPE(ptr noundef %26)
  %28 = getelementptr inbounds nuw %struct._typeobject, ptr %27, i32 0, i32 38
  %29 = load ptr, ptr %28, align 8, !tbaa !17
  %30 = load ptr, ptr %2, align 8, !tbaa !3
  call void %29(ptr noundef %30)
  ret void
}