; Function Attrs: nounwind uwtable
define internal void @MyObject_dealloc(ptr noundef %0) #0 {
  %.val5 = load i32, ptr %0, align 8, !tbaa !8
  %2 = icmp eq i32 %.val5, 0
  br i1 %2, label %4, label %3

3:                                                ; preds = %1
  tail call void @__assert_fail(ptr noundef nonnull @.str.31, ptr noundef nonnull @.str.28, i32 noundef 140, ptr noundef nonnull @__PRETTY_FUNCTION__.MyObject_dealloc) #6
  unreachable

4:                                                ; preds = %1
  %5 = tail call i32 @PyUnstable_TryIncRef(ptr noundef nonnull %0) #5
  %.not = icmp eq i32 %5, 0
  br i1 %.not, label %7, label %6

6:                                                ; preds = %4
  tail call void @__assert_fail(ptr noundef nonnull @.str.32, ptr noundef nonnull @.str.28, i32 noundef 141, ptr noundef nonnull @__PRETTY_FUNCTION__.MyObject_dealloc) #6
  unreachable

7:                                                ; preds = %4
  %.val = load i32, ptr %0, align 8, !tbaa !8
  %8 = icmp eq i32 %.val, 0
  br i1 %8, label %10, label %9

9:                                                ; preds = %7
  tail call void @__assert_fail(ptr noundef nonnull @.str.31, ptr noundef nonnull @.str.28, i32 noundef 142, ptr noundef nonnull @__PRETTY_FUNCTION__.MyObject_dealloc) #6
  unreachable

10:                                               ; preds = %7
  %11 = load i32, ptr @MyObject_dealloc_called, align 4, !tbaa !9
  %12 = add i32 %11, 1
  store i32 %12, ptr @MyObject_dealloc_called, align 4, !tbaa !9
  %13 = getelementptr i8, ptr %0, i64 8
  %.val6 = load ptr, ptr %13, align 8, !tbaa !11
  %14 = getelementptr inbounds nuw i8, ptr %.val6, i64 320
  %15 = load ptr, ptr %14, align 8, !tbaa !14
  tail call void %15(ptr noundef nonnull %0) #5
  ret void
}